; ModuleID = '37/553.c'
source_filename = "37/553.c"
target datalayout = "e-m:e-p270:32:32-p271:32:32-p272:64:64-i64:64-f80:128-n8:16:32:64-S128"
target triple = "x86_64-pc-linux-gnu"

@.str = private unnamed_addr constant [3 x i8] c"%d\00", align 1
@.str.1 = private unnamed_addr constant [3 x i8] c"%s\00", align 1
@.str.2 = private unnamed_addr constant [4 x i8] c"%c\0A\00", align 1
@.str.3 = private unnamed_addr constant [4 x i8] c"no\0A\00", align 1

; Function Attrs: noinline nounwind uwtable
define dso_local i32 @main() #0 {
  %1 = alloca i32, align 4
  %2 = alloca [100001 x i8], align 16
  %3 = alloca i32, align 4
  %4 = alloca i32, align 4
  %5 = alloca i32, align 4
  %6 = alloca i32, align 4
  %7 = alloca i32, align 4
  %8 = alloca i32, align 4
  %9 = alloca i32, align 4
  store i32 0, i32* %1, align 4
  %10 = call i32 (i8*, ...) @__isoc99_scanf(i8* getelementptr inbounds ([3 x i8], [3 x i8]* @.str, i64 0, i64 0), i32* %4)
  store i32 0, i32* %3, align 4
  br label %11

11:                                               ; preds = %77, %0
  %12 = load i32, i32* %3, align 4
  %13 = load i32, i32* %4, align 4
  %14 = icmp slt i32 %12, %13
  br i1 %14, label %15, label %80

15:                                               ; preds = %11
  %16 = getelementptr inbounds [100001 x i8], [100001 x i8]* %2, i64 0, i64 0
  %17 = call i32 (i8*, ...) @__isoc99_scanf(i8* getelementptr inbounds ([3 x i8], [3 x i8]* @.str.1, i64 0, i64 0), i8* %16)
  %18 = getelementptr inbounds [100001 x i8], [100001 x i8]* %2, i64 0, i64 0
  %19 = call i64 @strlen(i8* %18) #3
  %20 = trunc i64 %19 to i32
  store i32 %20, i32* %5, align 4
  store i32 0, i32* %6, align 4
  store i32 0, i32* %9, align 4
  br label %21

21:                                               ; preds = %67, %15
  %22 = load i32, i32* %6, align 4
  %23 = load i32, i32* %5, align 4
  %24 = icmp slt i32 %22, %23
  br i1 %24, label %25, label %70

25:                                               ; preds = %21
  store i32 0, i32* %8, align 4
  store i32 0, i32* %7, align 4
  br label %26

26:                                               ; preds = %50, %25
  %27 = load i32, i32* %7, align 4
  %28 = load i32, i32* %5, align 4
  %29 = icmp slt i32 %27, %28
  br i1 %29, label %30, label %53

30:                                               ; preds = %26
  %31 = load i32, i32* %6, align 4
  %32 = sext i32 %31 to i64
  %33 = getelementptr inbounds [100001 x i8], [100001 x i8]* %2, i64 0, i64 %32
  %34 = load i8, i8* %33, align 1
  %35 = sext i8 %34 to i32
  %36 = load i32, i32* %7, align 4
  %37 = sext i32 %36 to i64
  %38 = getelementptr inbounds [100001 x i8], [100001 x i8]* %2, i64 0, i64 %37
  %39 = load i8, i8* %38, align 1
  %40 = sext i8 %39 to i32
  %41 = icmp eq i32 %35, %40
  br i1 %41, label %42, label %49

42:                                               ; preds = %30
  %43 = load i32, i32* %7, align 4
  %44 = load i32, i32* %6, align 4
  %45 = icmp ne i32 %43, %44
  br i1 %45, label %46, label %49

46:                                               ; preds = %42
  %47 = load i32, i32* %8, align 4
  %48 = add nsw i32 %47, 1
  store i32 %48, i32* %8, align 4
  br label %49

49:                                               ; preds = %46, %42, %30
  br label %50

50:                                               ; preds = %49
  %51 = load i32, i32* %7, align 4
  %52 = add nsw i32 %51, 1
  store i32 %52, i32* %7, align 4
  br label %26

53:                                               ; preds = %26
  %54 = load i32, i32* %8, align 4
  %55 = icmp eq i32 %54, 0
  br i1 %55, label %56, label %63

56:                                               ; preds = %53
  %57 = load i32, i32* %6, align 4
  %58 = sext i32 %57 to i64
  %59 = getelementptr inbounds [100001 x i8], [100001 x i8]* %2, i64 0, i64 %58
  %60 = load i8, i8* %59, align 1
  %61 = sext i8 %60 to i32
  %62 = call i32 (i8*, ...) @printf(i8* getelementptr inbounds ([4 x i8], [4 x i8]* @.str.2, i64 0, i64 0), i32 %61)
  br label %70

63:                                               ; preds = %53
  %64 = load i32, i32* %9, align 4
  %65 = add nsw i32 %64, 1
  store i32 %65, i32* %9, align 4
  br label %66

66:                                               ; preds = %63
  br label %67

67:                                               ; preds = %66
  %68 = load i32, i32* %6, align 4
  %69 = add nsw i32 %68, 1
  store i32 %69, i32* %6, align 4
  br label %21

70:                                               ; preds = %56, %21
  %71 = load i32, i32* %9, align 4
  %72 = load i32, i32* %5, align 4
  %73 = icmp eq i32 %71, %72
  br i1 %73, label %74, label %76

74:                                               ; preds = %70
  %75 = call i32 (i8*, ...) @printf(i8* getelementptr inbounds ([4 x i8], [4 x i8]* @.str.3, i64 0, i64 0))
  br label %76

76:                                               ; preds = %74, %70
  br label %77

77:                                               ; preds = %76
  %78 = load i32, i32* %3, align 4
  %79 = add nsw i32 %78, 1
  store i32 %79, i32* %3, align 4
  br label %11

80:                                               ; preds = %11
  ret i32 0
}

declare dso_local i32 @__isoc99_scanf(i8*, ...) #1

; Function Attrs: nounwind readonly
declare dso_local i64 @strlen(i8*) #2

declare dso_local i32 @printf(i8*, ...) #1


!llvm.module.flags = !{!0}
!llvm.ident = !{!1}

!0 = !{i32 1, !"wchar_size", i32 4}
!1 = !{!"clang version 10.0.0-4ubuntu1 "}
